target datalayout = "e-m:e-p270:32:32-p271:32:32-p272:64:64-i64:64-i128:128-f80:128-n8:16:32:64-S128"
target triple = "x86_64-pc-linux-gnu"

%struct.pmix_object_t = type { %union.pthread_mutex_t, ptr, i32, %struct.pmix_tma }
%union.pthread_mutex_t = type { %struct.__pthread_mutex_s }
%struct.__pthread_mutex_s = type { i32, i32, i32, i32, i32, i16, i16, %struct.__pthread_internal_list }
%struct.__pthread_internal_list = type { ptr, ptr }
%struct.pmix_tma = type { ptr, ptr, ptr, ptr, ptr, ptr, ptr, ptr }
%struct.pmix_list_item_t = type { %struct.pmix_object_t, ptr, ptr, i32 }
%struct.timeval = type { i64, i64 }
%struct.pmix_proc = type { [256 x i8], i32 }
%struct.prte_oob_tcp_send_t = type { %struct.pmix_list_item_t, %struct.event, ptr, i8, %struct.prte_oob_tcp_hdr_t, ptr, ptr, i8, i32, ptr, i64 }
%struct.event = type { %struct.event_callback, %union.anon.0, i32, ptr, %union.anon.2, i16, i16, %struct.timeval }
%struct.event_callback = type { %struct.anon, i16, i8, i8, %union.anon, ptr }
%struct.anon = type { ptr, ptr }
%union.anon = type { ptr }
%union.anon.0 = type { %struct.anon.1 }
%struct.anon.1 = type { ptr, ptr }
%union.anon.2 = type { %struct.anon.3 }
%struct.anon.3 = type { %struct.anon.4, %struct.timeval }
%struct.anon.4 = type { ptr, ptr }
%struct.prte_oob_tcp_hdr_t = type { %struct.pmix_proc, %struct.pmix_proc, i32, i32, i32, i8, [32 x i8] }

; Function Attrs: nounwind uwtable
define internal void @snd_des(ptr noundef %0) #0 {
  %2 = alloca ptr, align 8
  store ptr %0, ptr %2, align 8, !tbaa !9
  %3 = load ptr, ptr %2, align 8, !tbaa !9
  %4 = getelementptr inbounds nuw %struct.prte_oob_tcp_send_t, ptr %3, i32 0, i32 6
  %5 = load ptr, ptr %4, align 8, !tbaa !72
  %6 = icmp ne ptr null, %5
  br i1 %6, label %7, label %11

7:                                                ; preds = %1
  %8 = load ptr, ptr %2, align 8, !tbaa !9
  %9 = getelementptr inbounds nuw %struct.prte_oob_tcp_send_t, ptr %8, i32 0, i32 6
  %10 = load ptr, ptr %9, align 8, !tbaa !72
  call void @free(ptr noundef %10) #12
  br label %11

11:                                               ; preds = %7, %1
  ret void
}